; Function Attrs: mustprogress nofree norecurse nosync nounwind willreturn memory(argmem: write) uwtable
define void @_ZN7rocksdb12AllocTrackerC2EPNS_18WriteBufferManagerE(ptr noundef nonnull writeonly align 8 captures(none) dereferenceable(18) initializes((0, 18)) %0, ptr noundef %1) unnamed_addr #0 align 2 {
  store ptr %1, ptr %0, align 8, !tbaa !4
  %3 = getelementptr inbounds nuw i8, ptr %0, i64 8
  store i64 0, ptr %3, align 8, !tbaa !14
  %4 = getelementptr inbounds nuw i8, ptr %0, i64 16
  store i8 0, ptr %4, align 8, !tbaa !15
  %5 = getelementptr inbounds nuw i8, ptr %0, i64 17
  store i8 0, ptr %5, align 1, !tbaa !16
  ret void
}